target datalayout = "e-m:e-p270:32:32-p271:32:32-p272:64:64-i64:64-i128:128-f80:128-n8:16:32:64-S128"
target triple = "x86_64-pc-linux-gnu"

@ett_aim_userclass = internal global i32 0, align 4
@.str.592 = private unnamed_addr constant [14 x i8] c"Value: 0x%04x\00", align 1

; Function Attrs: null_pointer_is_valid sspstrong uwtable
define internal i32 @dissect_aim_userclass(ptr noundef %0, i32 noundef %1, i32 noundef %2, ptr noundef %3, i32 noundef %4) #0 {
  %6 = alloca ptr, align 8
  %7 = alloca i32, align 4
  %8 = alloca i32, align 4
  %9 = alloca ptr, align 8
  %10 = alloca i32, align 4
  %11 = alloca ptr, align 8
  store ptr %0, ptr %6, align 8
  store i32 %1, ptr %7, align 4
  store i32 %2, ptr %8, align 4
  store ptr %3, ptr %9, align 8
  store i32 %4, ptr %10, align 4
  call void @llvm.lifetime.start.p0(i64 8, ptr %11) #13
  %12 = load ptr, ptr %9, align 8
  %13 = load i32, ptr @ett_aim_userclass, align 4
  %14 = call ptr @proto_item_add_subtree(ptr noundef %12, i32 noundef %13)
  store ptr %14, ptr %11, align 8
  %15 = load ptr, ptr %11, align 8
  %16 = load ptr, ptr %6, align 8
  %17 = load i32, ptr %7, align 4
  %18 = load i32, ptr %8, align 4
  %19 = load i32, ptr %10, align 4
  %20 = zext i32 %19 to i64
  call void @proto_tree_add_bitmask_list_value(ptr noundef %15, ptr noundef %16, i32 noundef %17, i32 noundef %18, ptr noundef @dissect_aim_userclass.flags, i64 noundef %20)
  %21 = load i32, ptr %7, align 4
  %22 = load i32, ptr %8, align 4
  %23 = add i32 %21, %22
  call void @llvm.lifetime.end.p0(i64 8, ptr %11) #13
  ret i32 %23
}

; Function Attrs: null_pointer_is_valid sspstrong uwtable
define internal i32 @dissect_aim_tlv_value_userclass(ptr noundef %0, i16 noundef zeroext %1, ptr noundef %2, ptr noundef %3) #0 {
  %5 = alloca ptr, align 8
  %6 = alloca i16, align 2
  %7 = alloca ptr, align 8
  %8 = alloca ptr, align 8
  %9 = alloca i16, align 2
  store ptr %0, ptr %5, align 8
  store i16 %1, ptr %6, align 2
  store ptr %2, ptr %7, align 8
  store ptr %3, ptr %8, align 8
  call void @llvm.lifetime.start.p0(i64 2, ptr %9) #13
  %10 = load ptr, ptr %7, align 8
  %11 = call zeroext i16 @tvb_get_ntohs(ptr noundef %10, i32 noundef 0)
  store i16 %11, ptr %9, align 2
  %12 = load ptr, ptr %5, align 8
  %13 = load i16, ptr %9, align 2
  %14 = zext i16 %13 to i32
  call void (ptr, ptr, ...) @proto_item_set_text(ptr noundef %12, ptr noundef @.str.592, i32 noundef %14)
  %15 = load ptr, ptr %7, align 8
  %16 = load ptr, ptr %5, align 8
  %17 = load i16, ptr %9, align 2
  %18 = zext i16 %17 to i32
  %19 = call i32 @dissect_aim_userclass(ptr noundef %15, i32 noundef 0, i32 noundef 2, ptr noundef %16, i32 noundef %18)
  call void @llvm.lifetime.end.p0(i64 2, ptr %9) #13
  ret i32 %19
}