; Function Attrs: null_pointer_is_valid sspstrong uwtable
define internal noundef range(i32 2, 5) i32 @dissect_aim_tlv_value_userclass(ptr noundef %0, i16 zeroext %1, ptr noundef %2, ptr readnone captures(none) %3) #0 {
  %5 = tail call zeroext i16 @tvb_get_ntohs(ptr noundef %2, i32 noundef 0)
  %6 = zext i16 %5 to i32
  tail call void (ptr, ptr, ...) @proto_item_set_text(ptr noundef %0, ptr noundef nonnull @.str.592, i32 noundef %6)
  %7 = load i32, ptr @ett_aim_userclass, align 4
  %8 = tail call ptr @proto_item_add_subtree(ptr noundef %0, i32 noundef %7)
  %9 = zext i16 %5 to i64
  tail call void @proto_tree_add_bitmask_list_value(ptr noundef %8, ptr noundef %2, i32 noundef 0, i32 noundef 2, ptr noundef nonnull @dissect_aim_userclass.flags, i64 noundef %9)
  ret i32 2
}